target datalayout = "e-m:e-p270:32:32-p271:32:32-p272:64:64-i64:64-i128:128-f80:128-n8:16:32:64-S128"
target triple = "x86_64-pc-linux-gnu"

%struct.CXzStream = type { i16, i64, i64, ptr, i64 }
%struct.CXzs = type { i64, i64, ptr }
%struct.ISzAlloc = type { ptr, ptr }

; Function Attrs: nounwind uwtable
define void @Xzs_Free(ptr noundef %0, ptr noundef %1) #0 {
  %3 = alloca ptr, align 8
  %4 = alloca ptr, align 8
  %5 = alloca i64, align 8
  store ptr %0, ptr %3, align 8
  store ptr %1, ptr %4, align 8
  store i64 0, ptr %5, align 8
  br label %6

6:                                                ; preds = %19, %2
  %7 = load i64, ptr %5, align 8
  %8 = load ptr, ptr %3, align 8
  %9 = getelementptr inbounds %struct.CXzs, ptr %8, i32 0, i32 0
  %10 = load i64, ptr %9, align 8
  %11 = icmp ult i64 %7, %10
  br i1 %11, label %12, label %22

12:                                               ; preds = %6
  %13 = load ptr, ptr %3, align 8
  %14 = getelementptr inbounds %struct.CXzs, ptr %13, i32 0, i32 2
  %15 = load ptr, ptr %14, align 8
  %16 = load i64, ptr %5, align 8
  %17 = getelementptr inbounds %struct.CXzStream, ptr %15, i64 %16
  %18 = load ptr, ptr %4, align 8
  call void @Xz_Free(ptr noundef %17, ptr noundef %18)
  br label %19

19:                                               ; preds = %12
  %20 = load i64, ptr %5, align 8
  %21 = add i64 %20, 1
  store i64 %21, ptr %5, align 8
  br label %6

22:                                               ; preds = %6
  %23 = load ptr, ptr %4, align 8
  %24 = getelementptr inbounds %struct.ISzAlloc, ptr %23, i32 0, i32 1
  %25 = load ptr, ptr %24, align 8
  %26 = load ptr, ptr %4, align 8
  %27 = load ptr, ptr %3, align 8
  %28 = getelementptr inbounds %struct.CXzs, ptr %27, i32 0, i32 2
  %29 = load ptr, ptr %28, align 8
  call void %25(ptr noundef %26, ptr noundef %29)
  %30 = load ptr, ptr %3, align 8
  %31 = getelementptr inbounds %struct.CXzs, ptr %30, i32 0, i32 1
  store i64 0, ptr %31, align 8
  %32 = load ptr, ptr %3, align 8
  %33 = getelementptr inbounds %struct.CXzs, ptr %32, i32 0, i32 0
  store i64 0, ptr %33, align 8
  %34 = load ptr, ptr %3, align 8
  %35 = getelementptr inbounds %struct.CXzs, ptr %34, i32 0, i32 2
  store ptr null, ptr %35, align 8
  ret void
}