; Function Attrs: nounwind uwtable
define void @Xzs_Free(ptr noundef captures(none) %0, ptr noundef %1) local_unnamed_addr #0 {
  %3 = load i64, ptr %0, align 8
  %.not = icmp eq i64 %3, 0
  br i1 %.not, label %._crit_edge, label %.lr.ph

.lr.ph:                                           ; preds = %2
  %4 = getelementptr inbounds nuw i8, ptr %0, i64 16
  br label %5

5:                                                ; preds = %.lr.ph, %5
  %.011 = phi i64 [ 0, %.lr.ph ], [ %8, %5 ]
  %6 = load ptr, ptr %4, align 8
  %7 = getelementptr inbounds %struct.CXzStream, ptr %6, i64 %.011
  tail call void @Xz_Free(ptr noundef %7, ptr noundef %1) #9
  %8 = add nuw i64 %.011, 1
  %9 = load i64, ptr %0, align 8
  %10 = icmp ult i64 %8, %9
  br i1 %10, label %5, label %._crit_edge

._crit_edge:                                      ; preds = %5, %2
  %11 = getelementptr inbounds nuw i8, ptr %1, i64 8
  %12 = load ptr, ptr %11, align 8
  %13 = getelementptr inbounds nuw i8, ptr %0, i64 16
  %14 = load ptr, ptr %13, align 8
  tail call void %12(ptr noundef %1, ptr noundef %14) #9
  tail call void @llvm.memset.p0.i64(ptr noundef nonnull align 8 dereferenceable(24) %0, i8 0, i64 24, i1 false)
  ret void
}